; Function Attrs: mustprogress nofree norecurse nosync nounwind willreturn memory(argmem: readwrite) uwtable
define void @_ZN5faiss22pq4_set_packed_elementEPhhmmmm(ptr noundef captures(none) %0, i8 noundef zeroext %1, i64 noundef %2, i64 noundef %3, i64 noundef %4, i64 noundef %5) local_unnamed_addr #14 {
  %7 = udiv i64 %4, %2
  %8 = add i64 %3, 1
  %9 = lshr i64 %8, 1
  %10 = mul i64 %9, %2
  %11 = mul i64 %10, %7
  %12 = getelementptr inbounds nuw i8, ptr %0, i64 %11
  %13 = urem i64 %4, %2
  %14 = icmp ugt i64 %13, 15
  %15 = and i64 %13, 15
  %16 = icmp samesign ult i64 %15, 8
  %17 = shl nuw nsw i64 %15, 1
  %18 = add nsw i64 %17, -15
  %.0.i = select i1 %16, i64 %17, i64 %18
  %19 = shl i64 %5, 4
  %20 = and i64 %19, 16
  %21 = lshr i64 %5, 1
  %22 = mul i64 %21, %2
  %23 = shl i8 %1, 4
  %.sink20 = select i1 %14, i8 15, i8 -16
  %.sink19 = select i1 %14, i8 %23, i8 %1
  %24 = getelementptr i8, ptr %12, i64 %22
  %25 = getelementptr i8, ptr %24, i64 %20
  %26 = getelementptr i8, ptr %25, i64 %.0.i
  %27 = load i8, ptr %26, align 1, !tbaa !11
  %28 = and i8 %27, %.sink20
  %29 = or i8 %28, %.sink19
  store i8 %29, ptr %26, align 1, !tbaa !11
  ret void
}